; ModuleID = '53/869.c'
source_filename = "53/869.c"
target datalayout = "e-m:e-p270:32:32-p271:32:32-p272:64:64-i64:64-f80:128-n8:16:32:64-S128"
target triple = "x86_64-pc-linux-gnu"

@.str = private unnamed_addr constant [3 x i8] c"%d\00", align 1
@.str.1 = private unnamed_addr constant [4 x i8] c"%d,\00", align 1

; Function Attrs: noinline nounwind uwtable
define dso_local i32 @main() #0 {
  %1 = alloca i32, align 4
  %2 = alloca i32, align 4
  %3 = alloca i32, align 4
  %4 = alloca i32, align 4
  %5 = alloca i32, align 4
  %6 = alloca i32, align 4
  %7 = alloca i32*, align 8
  %8 = alloca i32, align 4
  %9 = alloca i32, align 4
  %10 = alloca i32, align 4
  %11 = alloca i32, align 4
  store i32 0, i32* %1, align 4
  store i32 0, i32* %2, align 4
  store i32 0, i32* %3, align 4
  store i32 0, i32* %4, align 4
  store i32 0, i32* %5, align 4
  store i32 0, i32* %6, align 4
  %12 = call i32 (i8*, ...) @__isoc99_scanf(i8* getelementptr inbounds ([3 x i8], [3 x i8]* @.str, i64 0, i64 0), i32* %3)
  %13 = load i32, i32* %3, align 4
  store i32 %13, i32* %2, align 4
  %14 = load i32, i32* %3, align 4
  %15 = sext i32 %14 to i64
  %16 = mul i64 4, %15
  %17 = call noalias i8* @malloc(i64 %16) #3
  %18 = bitcast i8* %17 to i32*
  store i32* %18, i32** %7, align 8
  store i32 0, i32* %8, align 4
  br label %19

19:                                               ; preds = %61, %0
  %20 = load i32, i32* %8, align 4
  %21 = load i32, i32* %3, align 4
  %22 = icmp slt i32 %20, %21
  br i1 %22, label %23, label %64

23:                                               ; preds = %19
  %24 = load i32*, i32** %7, align 8
  %25 = load i32, i32* %8, align 4
  %26 = sext i32 %25 to i64
  %27 = getelementptr inbounds i32, i32* %24, i64 %26
  %28 = call i32 (i8*, ...) @__isoc99_scanf(i8* getelementptr inbounds ([3 x i8], [3 x i8]* @.str, i64 0, i64 0), i32* %27)
  store i32 0, i32* %9, align 4
  br label %29

29:                                               ; preds = %47, %23
  %30 = load i32, i32* %9, align 4
  %31 = load i32, i32* %8, align 4
  %32 = icmp slt i32 %30, %31
  br i1 %32, label %33, label %50

33:                                               ; preds = %29
  %34 = load i32*, i32** %7, align 8
  %35 = load i32, i32* %8, align 4
  %36 = sext i32 %35 to i64
  %37 = getelementptr inbounds i32, i32* %34, i64 %36
  %38 = load i32, i32* %37, align 4
  %39 = load i32*, i32** %7, align 8
  %40 = load i32, i32* %9, align 4
  %41 = sext i32 %40 to i64
  %42 = getelementptr inbounds i32, i32* %39, i64 %41
  %43 = load i32, i32* %42, align 4
  %44 = icmp eq i32 %38, %43
  br i1 %44, label %45, label %46

45:                                               ; preds = %33
  store i32 1, i32* %4, align 4
  br label %46

46:                                               ; preds = %45, %33
  br label %47

47:                                               ; preds = %46
  %48 = load i32, i32* %9, align 4
  %49 = add nsw i32 %48, 1
  store i32 %49, i32* %9, align 4
  br label %29

50:                                               ; preds = %29
  %51 = load i32, i32* %4, align 4
  %52 = icmp eq i32 %51, 1
  br i1 %52, label %53, label %60

53:                                               ; preds = %50
  %54 = load i32*, i32** %7, align 8
  %55 = load i32, i32* %8, align 4
  %56 = sext i32 %55 to i64
  %57 = getelementptr inbounds i32, i32* %54, i64 %56
  store i32 0, i32* %57, align 4
  %58 = load i32, i32* %2, align 4
  %59 = add nsw i32 %58, -1
  store i32 %59, i32* %2, align 4
  br label %60

60:                                               ; preds = %53, %50
  store i32 0, i32* %4, align 4
  br label %61

61:                                               ; preds = %60
  %62 = load i32, i32* %8, align 4
  %63 = add nsw i32 %62, 1
  store i32 %63, i32* %8, align 4
  br label %19

64:                                               ; preds = %19
  store i32 0, i32* %10, align 4
  br label %65

65:                                               ; preds = %93, %64
  %66 = load i32, i32* %10, align 4
  %67 = load i32, i32* %3, align 4
  %68 = icmp slt i32 %66, %67
  br i1 %68, label %69, label %96

69:                                               ; preds = %65
  %70 = load i32*, i32** %7, align 8
  %71 = load i32, i32* %10, align 4
  %72 = sext i32 %71 to i64
  %73 = getelementptr inbounds i32, i32* %70, i64 %72
  %74 = load i32, i32* %73, align 4
  %75 = icmp ne i32 %74, 0
  br i1 %75, label %76, label %86

76:                                               ; preds = %69
  %77 = load i32*, i32** %7, align 8
  %78 = load i32, i32* %10, align 4
  %79 = sext i32 %78 to i64
  %80 = getelementptr inbounds i32, i32* %77, i64 %79
  %81 = load i32, i32* %80, align 4
  %82 = call i32 (i8*, ...) @printf(i8* getelementptr inbounds ([4 x i8], [4 x i8]* @.str.1, i64 0, i64 0), i32 %81)
  %83 = load i32, i32* %5, align 4
  %84 = add nsw i32 %83, 1
  store i32 %84, i32* %5, align 4
  %85 = load i32, i32* %10, align 4
  store i32 %85, i32* %6, align 4
  br label %86

86:                                               ; preds = %76, %69
  %87 = load i32, i32* %5, align 4
  %88 = load i32, i32* %2, align 4
  %89 = sub nsw i32 %88, 1
  %90 = icmp eq i32 %87, %89
  br i1 %90, label %91, label %92

91:                                               ; preds = %86
  br label %96

92:                                               ; preds = %86
  br label %93

93:                                               ; preds = %92
  %94 = load i32, i32* %10, align 4
  %95 = add nsw i32 %94, 1
  store i32 %95, i32* %10, align 4
  br label %65

96:                                               ; preds = %91, %65
  %97 = load i32, i32* %6, align 4
  %98 = add nsw i32 %97, 1
  store i32 %98, i32* %11, align 4
  br label %99

99:                                               ; preds = %118, %96
  %100 = load i32, i32* %11, align 4
  %101 = load i32, i32* %3, align 4
  %102 = icmp slt i32 %100, %101
  br i1 %102, label %103, label %121

103:                                              ; preds = %99
  %104 = load i32*, i32** %7, align 8
  %105 = load i32, i32* %11, align 4
  %106 = sext i32 %105 to i64
  %107 = getelementptr inbounds i32, i32* %104, i64 %106
  %108 = load i32, i32* %107, align 4
  %109 = icmp ne i32 %108, 0
  br i1 %109, label %110, label %117

110:                                              ; preds = %103
  %111 = load i32*, i32** %7, align 8
  %112 = load i32, i32* %11, align 4
  %113 = sext i32 %112 to i64
  %114 = getelementptr inbounds i32, i32* %111, i64 %113
  %115 = load i32, i32* %114, align 4
  %116 = call i32 (i8*, ...) @printf(i8* getelementptr inbounds ([3 x i8], [3 x i8]* @.str, i64 0, i64 0), i32 %115)
  br label %121

117:                                              ; preds = %103
  br label %118

118:                                              ; preds = %117
  %119 = load i32, i32* %11, align 4
  %120 = add nsw i32 %119, 1
  store i32 %120, i32* %11, align 4
  br label %99

121:                                              ; preds = %110, %99
  ret i32 0
}

declare dso_local i32 @__isoc99_scanf(i8*, ...) #1

; Function Attrs: nounwind
declare dso_local noalias i8* @malloc(i64) #2

declare dso_local i32 @printf(i8*, ...) #1


!llvm.module.flags = !{!0}
!llvm.ident = !{!1}

!0 = !{i32 1, !"wchar_size", i32 4}
!1 = !{!"clang version 10.0.0-4ubuntu1 "}
